; Function Attrs: nounwind uwtable
define internal void @_on_sigusr2(ptr readnone captures(none) %0, i32 %1, ptr readnone captures(none) %2) #6 {
  %4 = tail call i32 @get_log_level() #19
  %5 = icmp sgt i32 %4, 2
  br i1 %5, label %6, label %7

6:                                                ; preds = %3
  tail call void (i32, ptr, ...) @log_var(i32 noundef 3, ptr noundef nonnull @.str.107) #19
  br label %7

7:                                                ; preds = %6, %3
  tail call void @lock_slurmctld(ptr noundef nonnull byval(%struct.slurmctld_lock_t) align 8 @_on_sigusr2.conf_write_lock) #19
  tail call void @update_logging()
  %8 = load i8, ptr @slurmctld_primary, align 1, !range !12, !noundef !13
  %9 = trunc nuw i8 %8 to i1
  br i1 %9, label %10, label %13

10:                                               ; preds = %7
  %11 = load i16, ptr getelementptr inbounds nuw (i8, ptr @slurm_conf, i64 1192), align 8
  %12 = zext i16 %11 to i32
  tail call void @slurmscriptd_update_log_level(i32 noundef %12, i1 noundef zeroext true) #19
  br label %13

13:                                               ; preds = %10, %7
  tail call void @unlock_slurmctld(ptr noundef nonnull byval(%struct.slurmctld_lock_t) align 8 @_on_sigusr2.conf_write_lock) #19
  %14 = load i8, ptr @slurmctld_primary, align 1, !range !12, !noundef !13
  %15 = trunc nuw i8 %14 to i1
  br i1 %15, label %16, label %20

16:                                               ; preds = %13
  %17 = tail call i32 @jobcomp_g_set_location() #19
  %.not = icmp eq i32 %17, 0
  br i1 %.not, label %20, label %18

18:                                               ; preds = %16
  %19 = tail call i32 (ptr, ...) @error(ptr noundef nonnull @.str.108, ptr noundef nonnull @.str.95) #19
  br label %20

20:                                               ; preds = %18, %16, %13
  ret void
}